target datalayout = "e-m:e-p270:32:32-p271:32:32-p272:64:64-i64:64-i128:128-f80:128-n8:16:32:64-S128"
target triple = "x86_64-pc-linux-gnu"

%struct._zend_refcounted_h = type { i32, %union.anon.4 }
%union.anon.4 = type { i32 }
%struct._zend_ast_ref = type { %struct._zend_refcounted_h }

; Function Attrs: nounwind uwtable
define ptr @zend_ast_copy(ptr noundef %0) #0 {
  %2 = alloca ptr, align 8
  %3 = alloca i32, align 4
  %4 = alloca ptr, align 8
  %5 = alloca i64, align 8
  %6 = alloca ptr, align 8
  store ptr %0, ptr %4, align 8
  %7 = load ptr, ptr %4, align 8
  %8 = icmp ne ptr %7, null
  call void @llvm.assume(i1 %8)
  %9 = load ptr, ptr %4, align 8
  %10 = call i64 @zend_ast_tree_size(ptr noundef %9)
  %11 = add i64 %10, 8
  store i64 %11, ptr %5, align 8
  %12 = load i64, ptr %5, align 8
  %13 = call i1 @llvm.is.constant.i64(i64 %12)
  br i1 %13, label %14, label %235

14:                                               ; preds = %1
  %15 = load i64, ptr %5, align 8
  %16 = icmp ule i64 %15, 8
  br i1 %16, label %17, label %19

17:                                               ; preds = %14
  %18 = call noalias ptr @_emalloc_8()
  br label %233

19:                                               ; preds = %14
  %20 = load i64, ptr %5, align 8
  %21 = icmp ule i64 %20, 16
  br i1 %21, label %22, label %24

22:                                               ; preds = %19
  %23 = call noalias ptr @_emalloc_16()
  br label %231

24:                                               ; preds = %19
  %25 = load i64, ptr %5, align 8
  %26 = icmp ule i64 %25, 24
  br i1 %26, label %27, label %29

27:                                               ; preds = %24
  %28 = call noalias ptr @_emalloc_24()
  br label %229

29:                                               ; preds = %24
  %30 = load i64, ptr %5, align 8
  %31 = icmp ule i64 %30, 32
  br i1 %31, label %32, label %34

32:                                               ; preds = %29
  %33 = call noalias ptr @_emalloc_32()
  br label %227

34:                                               ; preds = %29
  %35 = load i64, ptr %5, align 8
  %36 = icmp ule i64 %35, 40
  br i1 %36, label %37, label %39

37:                                               ; preds = %34
  %38 = call noalias ptr @_emalloc_40()
  br label %225

39:                                               ; preds = %34
  %40 = load i64, ptr %5, align 8
  %41 = icmp ule i64 %40, 48
  br i1 %41, label %42, label %44

42:                                               ; preds = %39
  %43 = call noalias ptr @_emalloc_48()
  br label %223

44:                                               ; preds = %39
  %45 = load i64, ptr %5, align 8
  %46 = icmp ule i64 %45, 56
  br i1 %46, label %47, label %49

47:                                               ; preds = %44
  %48 = call noalias ptr @_emalloc_56()
  br label %221

49:                                               ; preds = %44
  %50 = load i64, ptr %5, align 8
  %51 = icmp ule i64 %50, 64
  br i1 %51, label %52, label %54

52:                                               ; preds = %49
  %53 = call noalias ptr @_emalloc_64()
  br label %219

54:                                               ; preds = %49
  %55 = load i64, ptr %5, align 8
  %56 = icmp ule i64 %55, 80
  br i1 %56, label %57, label %59

57:                                               ; preds = %54
  %58 = call noalias ptr @_emalloc_80()
  br label %217

59:                                               ; preds = %54
  %60 = load i64, ptr %5, align 8
  %61 = icmp ule i64 %60, 96
  br i1 %61, label %62, label %64

62:                                               ; preds = %59
  %63 = call noalias ptr @_emalloc_96()
  br label %215

64:                                               ; preds = %59
  %65 = load i64, ptr %5, align 8
  %66 = icmp ule i64 %65, 112
  br i1 %66, label %67, label %69

67:                                               ; preds = %64
  %68 = call noalias ptr @_emalloc_112()
  br label %213

69:                                               ; preds = %64
  %70 = load i64, ptr %5, align 8
  %71 = icmp ule i64 %70, 128
  br i1 %71, label %72, label %74

72:                                               ; preds = %69
  %73 = call noalias ptr @_emalloc_128()
  br label %211

74:                                               ; preds = %69
  %75 = load i64, ptr %5, align 8
  %76 = icmp ule i64 %75, 160
  br i1 %76, label %77, label %79

77:                                               ; preds = %74
  %78 = call noalias ptr @_emalloc_160()
  br label %209

79:                                               ; preds = %74
  %80 = load i64, ptr %5, align 8
  %81 = icmp ule i64 %80, 192
  br i1 %81, label %82, label %84

82:                                               ; preds = %79
  %83 = call noalias ptr @_emalloc_192()
  br label %207

84:                                               ; preds = %79
  %85 = load i64, ptr %5, align 8
  %86 = icmp ule i64 %85, 224
  br i1 %86, label %87, label %89

87:                                               ; preds = %84
  %88 = call noalias ptr @_emalloc_224()
  br label %205

89:                                               ; preds = %84
  %90 = load i64, ptr %5, align 8
  %91 = icmp ule i64 %90, 256
  br i1 %91, label %92, label %94

92:                                               ; preds = %89
  %93 = call noalias ptr @_emalloc_256()
  br label %203

94:                                               ; preds = %89
  %95 = load i64, ptr %5, align 8
  %96 = icmp ule i64 %95, 320
  br i1 %96, label %97, label %99

97:                                               ; preds = %94
  %98 = call noalias ptr @_emalloc_320()
  br label %201

99:                                               ; preds = %94
  %100 = load i64, ptr %5, align 8
  %101 = icmp ule i64 %100, 384
  br i1 %101, label %102, label %104

102:                                              ; preds = %99
  %103 = call noalias ptr @_emalloc_384()
  br label %199

104:                                              ; preds = %99
  %105 = load i64, ptr %5, align 8
  %106 = icmp ule i64 %105, 448
  br i1 %106, label %107, label %109

107:                                              ; preds = %104
  %108 = call noalias ptr @_emalloc_448()
  br label %197

109:                                              ; preds = %104
  %110 = load i64, ptr %5, align 8
  %111 = icmp ule i64 %110, 512
  br i1 %111, label %112, label %114

112:                                              ; preds = %109
  %113 = call noalias ptr @_emalloc_512()
  br label %195

114:                                              ; preds = %109
  %115 = load i64, ptr %5, align 8
  %116 = icmp ule i64 %115, 640
  br i1 %116, label %117, label %119

117:                                              ; preds = %114
  %118 = call noalias ptr @_emalloc_640()
  br label %193

119:                                              ; preds = %114
  %120 = load i64, ptr %5, align 8
  %121 = icmp ule i64 %120, 768
  br i1 %121, label %122, label %124

122:                                              ; preds = %119
  %123 = call noalias ptr @_emalloc_768()
  br label %191

124:                                              ; preds = %119
  %125 = load i64, ptr %5, align 8
  %126 = icmp ule i64 %125, 896
  br i1 %126, label %127, label %129

127:                                              ; preds = %124
  %128 = call noalias ptr @_emalloc_896()
  br label %189

129:                                              ; preds = %124
  %130 = load i64, ptr %5, align 8
  %131 = icmp ule i64 %130, 1024
  br i1 %131, label %132, label %134

132:                                              ; preds = %129
  %133 = call noalias ptr @_emalloc_1024()
  br label %187

134:                                              ; preds = %129
  %135 = load i64, ptr %5, align 8
  %136 = icmp ule i64 %135, 1280
  br i1 %136, label %137, label %139

137:                                              ; preds = %134
  %138 = call noalias ptr @_emalloc_1280()
  br label %185

139:                                              ; preds = %134
  %140 = load i64, ptr %5, align 8
  %141 = icmp ule i64 %140, 1536
  br i1 %141, label %142, label %144

142:                                              ; preds = %139
  %143 = call noalias ptr @_emalloc_1536()
  br label %183

144:                                              ; preds = %139
  %145 = load i64, ptr %5, align 8
  %146 = icmp ule i64 %145, 1792
  br i1 %146, label %147, label %149

147:                                              ; preds = %144
  %148 = call noalias ptr @_emalloc_1792()
  br label %181

149:                                              ; preds = %144
  %150 = load i64, ptr %5, align 8
  %151 = icmp ule i64 %150, 2048
  br i1 %151, label %152, label %154

152:                                              ; preds = %149
  %153 = call noalias ptr @_emalloc_2048()
  br label %179

154:                                              ; preds = %149
  %155 = load i64, ptr %5, align 8
  %156 = icmp ule i64 %155, 2560
  br i1 %156, label %157, label %159

157:                                              ; preds = %154
  %158 = call noalias ptr @_emalloc_2560()
  br label %177

159:                                              ; preds = %154
  %160 = load i64, ptr %5, align 8
  %161 = icmp ule i64 %160, 3072
  br i1 %161, label %162, label %164

162:                                              ; preds = %159
  %163 = call noalias ptr @_emalloc_3072()
  br label %175

164:                                              ; preds = %159
  %165 = load i64, ptr %5, align 8
  %166 = icmp ule i64 %165, 2093056
  br i1 %166, label %167, label %170

167:                                              ; preds = %164
  %168 = load i64, ptr %5, align 8
  %169 = call noalias ptr @_emalloc_large(i64 noundef %168) #13
  br label %173

170:                                              ; preds = %164
  %171 = load i64, ptr %5, align 8
  %172 = call noalias ptr @_emalloc_huge(i64 noundef %171) #13
  br label %173

173:                                              ; preds = %170, %167
  %174 = phi ptr [ %169, %167 ], [ %172, %170 ]
  br label %175

175:                                              ; preds = %173, %162
  %176 = phi ptr [ %163, %162 ], [ %174, %173 ]
  br label %177

177:                                              ; preds = %175, %157
  %178 = phi ptr [ %158, %157 ], [ %176, %175 ]
  br label %179

179:                                              ; preds = %177, %152
  %180 = phi ptr [ %153, %152 ], [ %178, %177 ]
  br label %181

181:                                              ; preds = %179, %147
  %182 = phi ptr [ %148, %147 ], [ %180, %179 ]
  br label %183

183:                                              ; preds = %181, %142
  %184 = phi ptr [ %143, %142 ], [ %182, %181 ]
  br label %185

185:                                              ; preds = %183, %137
  %186 = phi ptr [ %138, %137 ], [ %184, %183 ]
  br label %187

187:                                              ; preds = %185, %132
  %188 = phi ptr [ %133, %132 ], [ %186, %185 ]
  br label %189

189:                                              ; preds = %187, %127
  %190 = phi ptr [ %128, %127 ], [ %188, %187 ]
  br label %191

191:                                              ; preds = %189, %122
  %192 = phi ptr [ %123, %122 ], [ %190, %189 ]
  br label %193

193:                                              ; preds = %191, %117
  %194 = phi ptr [ %118, %117 ], [ %192, %191 ]
  br label %195

195:                                              ; preds = %193, %112
  %196 = phi ptr [ %113, %112 ], [ %194, %193 ]
  br label %197

197:                                              ; preds = %195, %107
  %198 = phi ptr [ %108, %107 ], [ %196, %195 ]
  br label %199

199:                                              ; preds = %197, %102
  %200 = phi ptr [ %103, %102 ], [ %198, %197 ]
  br label %201

201:                                              ; preds = %199, %97
  %202 = phi ptr [ %98, %97 ], [ %200, %199 ]
  br label %203

203:                                              ; preds = %201, %92
  %204 = phi ptr [ %93, %92 ], [ %202, %201 ]
  br label %205

205:                                              ; preds = %203, %87
  %206 = phi ptr [ %88, %87 ], [ %204, %203 ]
  br label %207

207:                                              ; preds = %205, %82
  %208 = phi ptr [ %83, %82 ], [ %206, %205 ]
  br label %209

209:                                              ; preds = %207, %77
  %210 = phi ptr [ %78, %77 ], [ %208, %207 ]
  br label %211

211:                                              ; preds = %209, %72
  %212 = phi ptr [ %73, %72 ], [ %210, %209 ]
  br label %213

213:                                              ; preds = %211, %67
  %214 = phi ptr [ %68, %67 ], [ %212, %211 ]
  br label %215

215:                                              ; preds = %213, %62
  %216 = phi ptr [ %63, %62 ], [ %214, %213 ]
  br label %217

217:                                              ; preds = %215, %57
  %218 = phi ptr [ %58, %57 ], [ %216, %215 ]
  br label %219

219:                                              ; preds = %217, %52
  %220 = phi ptr [ %53, %52 ], [ %218, %217 ]
  br label %221

221:                                              ; preds = %219, %47
  %222 = phi ptr [ %48, %47 ], [ %220, %219 ]
  br label %223

223:                                              ; preds = %221, %42
  %224 = phi ptr [ %43, %42 ], [ %222, %221 ]
  br label %225

225:                                              ; preds = %223, %37
  %226 = phi ptr [ %38, %37 ], [ %224, %223 ]
  br label %227

227:                                              ; preds = %225, %32
  %228 = phi ptr [ %33, %32 ], [ %226, %225 ]
  br label %229

229:                                              ; preds = %227, %27
  %230 = phi ptr [ %28, %27 ], [ %228, %227 ]
  br label %231

231:                                              ; preds = %229, %22
  %232 = phi ptr [ %23, %22 ], [ %230, %229 ]
  br label %233

233:                                              ; preds = %231, %17
  %234 = phi ptr [ %18, %17 ], [ %232, %231 ]
  br label %238

235:                                              ; preds = %1
  %236 = load i64, ptr %5, align 8
  %237 = call noalias ptr @_emalloc(i64 noundef %236) #13
  br label %238

238:                                              ; preds = %235, %233
  %239 = phi ptr [ %234, %233 ], [ %237, %235 ]
  store ptr %239, ptr %6, align 8
  %240 = load ptr, ptr %4, align 8
  %241 = load ptr, ptr %6, align 8
  %242 = getelementptr inbounds i8, ptr %241, i64 8
  %243 = call ptr @zend_ast_tree_copy(ptr noundef %240, ptr noundef %242)
  %244 = load ptr, ptr %6, align 8
  %245 = getelementptr inbounds %struct._zend_ast_ref, ptr %244, i32 0, i32 0
  store ptr %245, ptr %2, align 8
  store i32 1, ptr %3, align 4
  %246 = load i32, ptr %3, align 4
  %247 = load ptr, ptr %2, align 8
  store i32 %246, ptr %247, align 4
  %248 = load ptr, ptr %6, align 8
  %249 = getelementptr inbounds %struct._zend_ast_ref, ptr %248, i32 0, i32 0
  %250 = getelementptr inbounds %struct._zend_refcounted_h, ptr %249, i32 0, i32 1
  store i32 27, ptr %250, align 4
  %251 = load ptr, ptr %6, align 8
  ret ptr %251
}