; Function Attrs: nounwind uwtable
define ptr @zend_ast_copy(ptr noundef readonly %0) local_unnamed_addr #0 {
  %2 = icmp ne ptr %0, null
  tail call void @llvm.assume(i1 %2)
  %3 = tail call fastcc i64 @zend_ast_tree_size(ptr noundef nonnull %0)
  %4 = add i64 %3, 8
  %5 = tail call noalias ptr @_emalloc(i64 noundef %4) #13
  %6 = getelementptr inbounds i8, ptr %5, i64 8
  %7 = tail call fastcc ptr @zend_ast_tree_copy(ptr noundef nonnull %0, ptr noundef nonnull %6)
  store i32 1, ptr %5, align 4
  %8 = getelementptr inbounds i8, ptr %5, i64 4
  store i32 27, ptr %8, align 4
  ret ptr %5
}